; Function Attrs: mustprogress ssp uwtable
define void @_ZN6open3d13visualization30ViewControlWithCustomAnimation9GoToFirstEv(ptr noundef nonnull align 16 dereferenceable(816) %0) local_unnamed_addr #1 align 2 {
  %2 = getelementptr inbounds nuw i8, ptr %0, i64 744
  %3 = load ptr, ptr %2, align 8, !tbaa !53
  %4 = getelementptr inbounds nuw i8, ptr %0, i64 752
  %5 = load ptr, ptr %4, align 16, !tbaa !53
  %6 = icmp eq ptr %3, %5
  br i1 %6, label %16, label %7

7:                                                ; preds = %1
  %8 = getelementptr inbounds nuw i8, ptr %0, i64 728
  %9 = load i32, ptr %8, align 8, !tbaa !26
  %10 = icmp eq i32 %9, 0
  br i1 %10, label %11, label %13

11:                                               ; preds = %7
  %12 = getelementptr inbounds nuw i8, ptr %0, i64 808
  store double 0.000000e+00, ptr %12, align 8, !tbaa !83
  br label %15

13:                                               ; preds = %7
  %14 = getelementptr inbounds nuw i8, ptr %0, i64 800
  store double 0.000000e+00, ptr %14, align 16, !tbaa !84
  br label %15

15:                                               ; preds = %13, %11
  tail call void @_ZN6open3d13visualization30ViewControlWithCustomAnimation28SetViewControlFromTrajectoryEv(ptr noundef nonnull align 16 dereferenceable(816) %0)
  br label %16

16:                                               ; preds = %1, %15
  ret void
}